; Function Attrs: mustprogress nounwind uwtable
define hidden void @_ZN16StackFrameStreamC2EP10JavaThreadbbb(ptr noundef nonnull align 8 dereferenceable(5041) %0, ptr noundef %1, i1 noundef zeroext %2, i1 noundef zeroext %3, i1 zeroext %4) unnamed_addr #0 align 2 {
  %6 = alloca %class.frame, align 8
  %7 = getelementptr inbounds i8, ptr %0, i64 40
  %8 = getelementptr inbounds i8, ptr %0, i64 32
  tail call void @llvm.memset.p0.i64(ptr noundef nonnull align 8 dereferenceable(24) %0, i8 0, i64 24, i1 false)
  tail call void @llvm.memset.p0.i64(ptr noundef nonnull align 8 dereferenceable(16) %7, i8 0, i64 16, i1 false)
  store i32 2, ptr %8, align 8
  %9 = getelementptr inbounds i8, ptr %0, i64 24
  store ptr null, ptr %9, align 8
  %10 = getelementptr inbounds i8, ptr %0, i64 36
  store i8 0, ptr %10, align 4
  %11 = getelementptr inbounds i8, ptr %0, i64 56
  %12 = zext i1 %2 to i32
  %13 = zext i1 %3 to i32
  tail call void @_ZN11RegisterMapC1EP10JavaThreadNS_9UpdateMapENS_13ProcessFramesENS_16WalkContinuationE(ptr noundef nonnull align 8 dereferenceable(4983) %11, ptr noundef %1, i32 noundef %12, i32 noundef %13, i32 noundef 0) #5
  %14 = getelementptr inbounds i8, ptr %1, i64 928
  tail call void @_ZN15JavaFrameAnchor13make_walkableEv(ptr noundef nonnull align 8 dereferenceable(24) %14) #5, !noalias !6
  call void @_ZN10JavaThread13pd_last_frameEv(ptr dead_on_unwind nonnull writable sret(%class.frame) align 8 %6, ptr noundef nonnull align 8 dereferenceable(1800) %1) #5
  call void @llvm.memcpy.p0.p0.i64(ptr noundef nonnull align 8 dereferenceable(56) %0, ptr noundef nonnull align 8 dereferenceable(56) %6, i64 56, i1 false)
  %15 = getelementptr inbounds i8, ptr %0, i64 5040
  store i8 0, ptr %15, align 8
  ret void
}